; Function Attrs: mustprogress nounwind uwtable
define hidden void @_ZN8FileTest9ClearTestEv(ptr noundef nonnull align 8 dereferenceable(176) initializes((12, 16), (24, 32), (56, 64)) %0) local_unnamed_addr #0 align 2 personality ptr @__gxx_personality_v0 {
  %2 = getelementptr inbounds nuw i8, ptr %0, i64 12
  store i32 0, ptr %2, align 4, !tbaa !40
  %3 = getelementptr inbounds nuw i8, ptr %0, i64 16
  %4 = getelementptr inbounds nuw i8, ptr %0, i64 24
  store i64 0, ptr %4, align 8, !tbaa !12
  %5 = load ptr, ptr %3, align 8, !tbaa !39
  store i8 0, ptr %5, align 1, !tbaa !15
  %6 = getelementptr inbounds nuw i8, ptr %0, i64 48
  %7 = getelementptr inbounds nuw i8, ptr %0, i64 56
  store i64 0, ptr %7, align 8, !tbaa !12
  %8 = load ptr, ptr %6, align 8, !tbaa !39
  store i8 0, ptr %8, align 1, !tbaa !15
  %9 = getelementptr inbounds nuw i8, ptr %0, i64 80
  %10 = getelementptr inbounds nuw i8, ptr %0, i64 96
  %11 = load ptr, ptr %10, align 8, !tbaa !21
  invoke void @_ZNSt8_Rb_treeINSt7__cxx1112basic_stringIcSt11char_traitsIcESaIcEEESt4pairIKS5_S5_ESt10_Select1stIS8_ESt4lessIS5_ESaIS8_EE8_M_eraseEPSt13_Rb_tree_nodeIS8_E(ptr noundef nonnull align 8 dereferenceable(48) %9, ptr noundef %11)
          to label %_ZNSt3mapINSt7__cxx1112basic_stringIcSt11char_traitsIcESaIcEEES5_St4lessIS5_ESaISt4pairIKS5_S5_EEE5clearEv.exit unwind label %12

12:                                               ; preds = %1
  %13 = landingpad { ptr, i32 }
          catch ptr null
  %14 = extractvalue { ptr, i32 } %13, 0
  tail call void @__clang_call_terminate(ptr %14) #27
  unreachable

_ZNSt3mapINSt7__cxx1112basic_stringIcSt11char_traitsIcESaIcEEES5_St4lessIS5_ESaISt4pairIKS5_S5_EEE5clearEv.exit: ; preds = %1
  %15 = getelementptr inbounds nuw i8, ptr %0, i64 88
  store ptr null, ptr %10, align 8, !tbaa !21
  %16 = getelementptr inbounds nuw i8, ptr %0, i64 104
  store ptr %15, ptr %16, align 8, !tbaa !22
  %17 = getelementptr inbounds nuw i8, ptr %0, i64 112
  store ptr %15, ptr %17, align 8, !tbaa !23
  %18 = getelementptr inbounds nuw i8, ptr %0, i64 120
  store i64 0, ptr %18, align 8, !tbaa !24
  %19 = getelementptr inbounds nuw i8, ptr %0, i64 128
  %20 = getelementptr inbounds nuw i8, ptr %0, i64 144
  %21 = load ptr, ptr %20, align 8, !tbaa !21
  invoke void @_ZNSt8_Rb_treeINSt7__cxx1112basic_stringIcSt11char_traitsIcESaIcEEES5_St9_IdentityIS5_ESt4lessIS5_ESaIS5_EE8_M_eraseEPSt13_Rb_tree_nodeIS5_E(ptr noundef nonnull align 8 dereferenceable(48) %19, ptr noundef %21)
          to label %_ZNSt3setINSt7__cxx1112basic_stringIcSt11char_traitsIcESaIcEEESt4lessIS5_ESaIS5_EE5clearEv.exit unwind label %22

22:                                               ; preds = %_ZNSt3mapINSt7__cxx1112basic_stringIcSt11char_traitsIcESaIcEEES5_St4lessIS5_ESaISt4pairIKS5_S5_EEE5clearEv.exit
  %23 = landingpad { ptr, i32 }
          catch ptr null
  %24 = extractvalue { ptr, i32 } %23, 0
  tail call void @__clang_call_terminate(ptr %24) #27
  unreachable

_ZNSt3setINSt7__cxx1112basic_stringIcSt11char_traitsIcESaIcEEESt4lessIS5_ESaIS5_EE5clearEv.exit: ; preds = %_ZNSt3mapINSt7__cxx1112basic_stringIcSt11char_traitsIcESaIcEEES5_St4lessIS5_ESaISt4pairIKS5_S5_EEE5clearEv.exit
  %25 = getelementptr inbounds nuw i8, ptr %0, i64 136
  store ptr null, ptr %20, align 8, !tbaa !21
  %26 = getelementptr inbounds nuw i8, ptr %0, i64 152
  store ptr %25, ptr %26, align 8, !tbaa !22
  %27 = getelementptr inbounds nuw i8, ptr %0, i64 160
  store ptr %25, ptr %27, align 8, !tbaa !23
  %28 = getelementptr inbounds nuw i8, ptr %0, i64 168
  store i64 0, ptr %28, align 8, !tbaa !24
  ret void
}